; Function Attrs: mustprogress nounwind uwtable
define internal void @_ZL12CrashHandlerPv(ptr readnone captures(none) %0) #3 {
  %2 = tail call noundef nonnull align 8 dereferenceable(96) ptr @_ZN4llvm4errsEv() #19
  %3 = load ptr, ptr @_ZL12BugReportMsg, align 8
  %.not.i.i = icmp eq ptr %3, null
  br i1 %.not.i.i, label %_ZN4llvm11raw_ostreamlsEPKc.exit, label %_ZN4llvm9StringRefC2EPKc.exit.i

_ZN4llvm9StringRefC2EPKc.exit.i:                  ; preds = %1
  %4 = tail call noundef i64 @strlen(ptr noundef nonnull dereferenceable(1) %3) #19
  %5 = getelementptr inbounds nuw i8, ptr %2, i64 24
  %6 = load ptr, ptr %5, align 8
  %7 = getelementptr inbounds nuw i8, ptr %2, i64 32
  %8 = load ptr, ptr %7, align 8
  %9 = ptrtoint ptr %6 to i64
  %10 = ptrtoint ptr %8 to i64
  %11 = sub i64 %9, %10
  %12 = icmp ugt i64 %4, %11
  br i1 %12, label %13, label %15

13:                                               ; preds = %_ZN4llvm9StringRefC2EPKc.exit.i
  %14 = tail call noundef nonnull align 8 dereferenceable(48) ptr @_ZN4llvm11raw_ostream5writeEPKcm(ptr noundef nonnull align 8 dereferenceable(48) %2, ptr noundef nonnull %3, i64 noundef %4) #19
  br label %_ZN4llvm11raw_ostreamlsEPKc.exit

15:                                               ; preds = %_ZN4llvm9StringRefC2EPKc.exit.i
  %.not.i2.i = icmp eq i64 %4, 0
  br i1 %.not.i2.i, label %_ZN4llvm11raw_ostreamlsEPKc.exit, label %16

16:                                               ; preds = %15
  tail call void @llvm.memcpy.p0.p0.i64(ptr align 1 %8, ptr nonnull align 1 %3, i64 %4, i1 false)
  %17 = load ptr, ptr %7, align 8
  %18 = getelementptr inbounds i8, ptr %17, i64 %4
  store ptr %18, ptr %7, align 8
  br label %_ZN4llvm11raw_ostreamlsEPKc.exit

_ZN4llvm11raw_ostreamlsEPKc.exit:                 ; preds = %1, %13, %15, %16
  %19 = tail call noundef nonnull align 8 dereferenceable(96) ptr @_ZN4llvm4errsEv() #19
  tail call fastcc void @_ZL18PrintCurStackTraceRN4llvm11raw_ostreamE(ptr noundef nonnull align 8 dereferenceable(48) %19)
  ret void
}